; Function Attrs: mustprogress nofree norecurse nosync nounwind willreturn memory(read, inaccessiblemem: none) uwtable
define dso_local noundef ptr @_ZNK4llvm10BasicBlock14getFirstNonPHIEv(ptr noundef nonnull readonly align 8 dereferenceable(80) %0) local_unnamed_addr #4 align 2 {
  %2 = getelementptr inbounds nuw i8, ptr %0, i64 56
  %3 = getelementptr inbounds nuw i8, ptr %0, i64 48
  %.sroa.012.017 = load ptr, ptr %2, align 8
  %.not18 = icmp eq ptr %.sroa.012.017, %3
  br i1 %.not18, label %.split.loop.exit, label %.lr.ph

.lr.ph:                                           ; preds = %1, %7
  %.sroa.012.019 = phi ptr [ %.sroa.012.0, %7 ], [ %.sroa.012.017, %1 ]
  %4 = getelementptr inbounds i8, ptr %.sroa.012.019, i64 -24
  %5 = load i8, ptr %4, align 8
  %6 = icmp eq i8 %5, 84
  br i1 %6, label %7, label %.split.loop.exit.loopexit.split.loop.exit

7:                                                ; preds = %.lr.ph
  %8 = getelementptr inbounds nuw i8, ptr %.sroa.012.019, i64 8
  %.sroa.012.0 = load ptr, ptr %8, align 8
  %.not = icmp eq ptr %.sroa.012.0, %3
  br i1 %.not, label %.split.loop.exit, label %.lr.ph

.split.loop.exit.loopexit.split.loop.exit:        ; preds = %.lr.ph
  %9 = getelementptr inbounds i8, ptr %.sroa.012.019, i64 -24
  br label %.split.loop.exit

.split.loop.exit:                                 ; preds = %7, %.split.loop.exit.loopexit.split.loop.exit, %1
  %.0 = phi ptr [ null, %1 ], [ %9, %.split.loop.exit.loopexit.split.loop.exit ], [ null, %7 ]
  ret ptr %.0
}